; Function Attrs: mustprogress nounwind uwtable
define dso_local noundef nonnull ptr @_ZN4llvm10BasicBlock12createMarkerEPNS_11InstructionE(ptr noundef nonnull readnone align 8 captures(none) dereferenceable(80) %0, ptr noundef %1) local_unnamed_addr #0 align 2 {
  %3 = getelementptr inbounds nuw i8, ptr %1, i64 64
  %4 = load ptr, ptr %3, align 8
  %.not = icmp eq ptr %4, null
  br i1 %.not, label %5, label %9

5:                                                ; preds = %2
  %6 = tail call noalias noundef nonnull dereferenceable(24) ptr @_Znwm(i64 noundef 24) #25
  %7 = getelementptr inbounds nuw i8, ptr %6, i64 8
  store ptr %7, ptr %7, align 8
  %8 = getelementptr inbounds nuw i8, ptr %6, i64 16
  store ptr %7, ptr %8, align 8
  store ptr %1, ptr %6, align 8
  store ptr %6, ptr %3, align 8
  br label %9

9:                                                ; preds = %2, %5
  %.0 = phi ptr [ %6, %5 ], [ %4, %2 ]
  ret ptr %.0
}